target datalayout = "e-m:e-p270:32:32-p271:32:32-p272:64:64-i64:64-i128:128-f80:128-n8:16:32:64-S128"
target triple = "x86_64-unknown-linux-gnu"

%struct.ChardevClass = type { %struct.ObjectClass, i8, i8, ptr, ptr, ptr, ptr, ptr, ptr, ptr, ptr, ptr, ptr, ptr, ptr, ptr, ptr, ptr, ptr }
%struct.ObjectClass = type { ptr, ptr, [4 x ptr], [4 x ptr], ptr, ptr }

@.str.2 = private unnamed_addr constant [23 x i8] c"../qemu/chardev/char.c\00", align 1
@.str.4 = private unnamed_addr constant [8 x i8] c"chardev\00", align 1
@.str.104 = private unnamed_addr constant [101 x i8] c"/home/dtcxzyw/WorkSpace/Projects/compilers/llvm-opt-benchmark/bench/qemu/qemu/include/chardev/char.h\00", align 1
@.str.105 = private unnamed_addr constant [11 x i8] c"chardev-%s\00", align 1
@__func__.char_get_class = private unnamed_addr constant [15 x i8] c"char_get_class\00", align 1
@.str.106 = private unnamed_addr constant [37 x i8] c"'%s' is not a valid char driver name\00", align 1
@.str.107 = private unnamed_addr constant [26 x i8] c"Parameter '%s' expects %s\00", align 1
@.str.108 = private unnamed_addr constant [7 x i8] c"driver\00", align 1
@.str.109 = private unnamed_addr constant [24 x i8] c"an abstract device type\00", align 1
@__func__.CHARDEV_CLASS = private unnamed_addr constant [14 x i8] c"CHARDEV_CLASS\00", align 1

; Function Attrs: nounwind sspstrong uwtable
define internal ptr @CHARDEV_CLASS(ptr noundef %klass) #0 {
entry:
  %klass.addr = alloca ptr, align 8
  store ptr %klass, ptr %klass.addr, align 8
  %0 = load ptr, ptr %klass.addr, align 8
  %call = call ptr @object_class_dynamic_cast_assert(ptr noundef %0, ptr noundef @.str.4, ptr noundef @.str.104, i32 noundef 231, ptr noundef @__func__.CHARDEV_CLASS)
  ret ptr %call
}

; Function Attrs: nounwind sspstrong uwtable
define internal ptr @char_get_class(ptr noundef %driver, ptr noundef %errp) #0 {
entry:
  %retval = alloca ptr, align 8
  %driver.addr = alloca ptr, align 8
  %errp.addr = alloca ptr, align 8
  %oc = alloca ptr, align 8
  %cc = alloca ptr, align 8
  %typename = alloca ptr, align 8
  store ptr %driver, ptr %driver.addr, align 8
  store ptr %errp, ptr %errp.addr, align 8
  %0 = load ptr, ptr %driver.addr, align 8
  %call = call noalias ptr (ptr, ...) @g_strdup_printf(ptr noundef @.str.105, ptr noundef %0)
  store ptr %call, ptr %typename, align 8
  %1 = load ptr, ptr %typename, align 8
  %call1 = call ptr @module_object_class_by_name(ptr noundef %1)
  store ptr %call1, ptr %oc, align 8
  %2 = load ptr, ptr %typename, align 8
  call void @g_free(ptr noundef %2)
  %3 = load ptr, ptr %oc, align 8
  %call2 = call ptr @object_class_dynamic_cast(ptr noundef %3, ptr noundef @.str.4)
  %tobool = icmp ne ptr %call2, null
  br i1 %tobool, label %if.end, label %if.then

if.then:                                          ; preds = %entry
  %4 = load ptr, ptr %errp.addr, align 8
  %5 = load ptr, ptr %driver.addr, align 8
  call void (ptr, ptr, i32, ptr, ptr, ...) @error_setg_internal(ptr noundef %4, ptr noundef @.str.2, i32 noundef 515, ptr noundef @__func__.char_get_class, ptr noundef @.str.106, ptr noundef %5)
  store ptr null, ptr %retval, align 8
  br label %return

if.end:                                           ; preds = %entry
  %6 = load ptr, ptr %oc, align 8
  %call3 = call zeroext i1 @object_class_is_abstract(ptr noundef %6)
  br i1 %call3, label %if.then4, label %if.end5

if.then4:                                         ; preds = %if.end
  %7 = load ptr, ptr %errp.addr, align 8
  call void (ptr, ptr, i32, ptr, ptr, ...) @error_setg_internal(ptr noundef %7, ptr noundef @.str.2, i32 noundef 521, ptr noundef @__func__.char_get_class, ptr noundef @.str.107, ptr noundef @.str.108, ptr noundef @.str.109)
  store ptr null, ptr %retval, align 8
  br label %return

if.end5:                                          ; preds = %if.end
  %8 = load ptr, ptr %oc, align 8
  %call6 = call ptr @CHARDEV_CLASS(ptr noundef %8)
  store ptr %call6, ptr %cc, align 8
  %9 = load ptr, ptr %cc, align 8
  %internal = getelementptr inbounds %struct.ChardevClass, ptr %9, i32 0, i32 1
  %10 = load i8, ptr %internal, align 8
  %tobool7 = trunc i8 %10 to i1
  br i1 %tobool7, label %if.then8, label %if.end9

if.then8:                                         ; preds = %if.end5
  %11 = load ptr, ptr %errp.addr, align 8
  %12 = load ptr, ptr %driver.addr, align 8
  call void (ptr, ptr, i32, ptr, ptr, ...) @error_setg_internal(ptr noundef %11, ptr noundef @.str.2, i32 noundef 527, ptr noundef @__func__.char_get_class, ptr noundef @.str.106, ptr noundef %12)
  store ptr null, ptr %retval, align 8
  br label %return

if.end9:                                          ; preds = %if.end5
  %13 = load ptr, ptr %cc, align 8
  store ptr %13, ptr %retval, align 8
  br label %return

return:                                           ; preds = %if.end9, %if.then8, %if.then4, %if.then
  %14 = load ptr, ptr %retval, align 8
  ret ptr %14
}