; Function Attrs: nounwind sspstrong uwtable
define internal fastcc ptr @char_get_class(ptr noundef %driver, ptr noundef %errp) unnamed_addr #0 {
entry:
  %call = tail call noalias ptr (ptr, ...) @g_strdup_printf(ptr noundef nonnull @.str.105, ptr noundef %driver) #13
  %call1 = tail call ptr @module_object_class_by_name(ptr noundef %call) #13
  tail call void @g_free(ptr noundef %call) #13
  %call2 = tail call ptr @object_class_dynamic_cast(ptr noundef %call1, ptr noundef nonnull @.str.4) #13
  %tobool.not = icmp eq ptr %call2, null
  br i1 %tobool.not, label %if.then, label %if.end

if.then:                                          ; preds = %entry
  tail call void (ptr, ptr, i32, ptr, ptr, ...) @error_setg_internal(ptr noundef %errp, ptr noundef nonnull @.str.2, i32 noundef 515, ptr noundef nonnull @__func__.char_get_class, ptr noundef nonnull @.str.106, ptr noundef %driver) #13
  br label %return

if.end:                                           ; preds = %entry
  %call3 = tail call zeroext i1 @object_class_is_abstract(ptr noundef %call1) #13
  br i1 %call3, label %if.then4, label %if.end5

if.then4:                                         ; preds = %if.end
  tail call void (ptr, ptr, i32, ptr, ptr, ...) @error_setg_internal(ptr noundef %errp, ptr noundef nonnull @.str.2, i32 noundef 521, ptr noundef nonnull @__func__.char_get_class, ptr noundef nonnull @.str.107, ptr noundef nonnull @.str.108, ptr noundef nonnull @.str.109) #13
  br label %return

if.end5:                                          ; preds = %if.end
  %call.i = tail call ptr @object_class_dynamic_cast_assert(ptr noundef %call1, ptr noundef nonnull @.str.4, ptr noundef nonnull @.str.104, i32 noundef 231, ptr noundef nonnull @__func__.CHARDEV_CLASS) #13
  %internal = getelementptr inbounds nuw i8, ptr %call.i, i64 96
  %0 = load i8, ptr %internal, align 8
  %tobool7 = trunc i8 %0 to i1
  br i1 %tobool7, label %if.then8, label %return

if.then8:                                         ; preds = %if.end5
  tail call void (ptr, ptr, i32, ptr, ptr, ...) @error_setg_internal(ptr noundef %errp, ptr noundef nonnull @.str.2, i32 noundef 527, ptr noundef nonnull @__func__.char_get_class, ptr noundef nonnull @.str.106, ptr noundef %driver) #13
  br label %return

return:                                           ; preds = %if.end5, %if.then8, %if.then4, %if.then
  %retval.0 = phi ptr [ null, %if.then4 ], [ null, %if.then8 ], [ null, %if.then ], [ %call.i, %if.end5 ]
  ret ptr %retval.0
}